(lp0
(lp1
S'platform'
p2
ag2
ag2
ag2
ag2
ag2
ag2
ag2
aa(lp3
g2
aS' '
p4
ag4
ag4
ag4
ag4
ag4
ag2
aa(lp5
g2
ag4
ag4
ag4
aS'playerSpawn'
p6
ag4
ag4
ag2
aa(lp7
g2
ag4
ag4
ag4
ag4
ag4
ag4
ag2
aa(lp8
g2
ag4
ag4
ag4
ag4
ag2
ag4
ag2
aa(lp9
g2
ag4
ag4
ag4
ag4
ag2
ag4
ag2
aa(lp10
g2
ag4
ag4
ag4
ag4
ag4
ag4
ag2
aa(lp11
g2
ag4
ag4
ag4
ag4
ag4
ag4
ag2
aa(lp12
g2
ag4
ag4
ag4
ag2
ag4
ag4
ag2
aa(lp13
g2
ag4
ag4
ag4
ag2
ag4
ag4
ag2
aa(lp14
g2
ag4
ag4
ag4
ag4
ag4
ag4
ag2
aa(lp15
g2
ag4
ag4
ag4
ag4
ag4
ag4
ag2
aa(lp16
g2
ag4
ag4
aS' '
p17
aS'platform'
p18
ag4
ag4
ag2
aa(lp19
g2
ag4
ag17
aS'exit'
p20
ag18
ag4
ag4
ag2
aa(lp21
g2
ag2
ag2
ag2
ag2
ag2
ag2
ag2
aa.