(lp0
(lp1
S'platform'
p2
ag2
ag2
ag2
ag2
ag2
ag2
ag2
aa(lp3
g2
aS' '
p4
ag4
ag4
aS'platform'
p5
ag4
ag4
ag2
aa(lp6
g2
ag4
ag4
ag4
ag5
ag4
aS'playerSpawn'
p7
ag2
aa(lp8
g2
ag4
ag4
ag4
ag4
ag4
ag4
ag2
aa(lp9
g2
ag4
ag4
ag4
ag4
ag4
ag4
ag2
aa(lp10
g2
ag4
ag4
ag4
ag4
ag4
ag4
ag2
aa(lp11
g2
ag4
ag4
ag4
ag4
ag4
aS'crate'
p12
ag2
aa(lp13
g2
ag4
ag4
ag4
ag4
ag4
ag4
ag2
aa(lp14
g2
ag4
ag4
ag4
ag4
ag4
ag4
ag2
aa(lp15
g2
ag4
ag4
ag4
ag4
ag4
ag4
ag2
aa(lp16
g2
ag4
ag4
ag4
ag4
ag4
ag4
ag2
aa(lp17
g2
ag4
ag4
ag4
ag4
ag4
ag4
ag2
aa(lp18
g2
ag4
ag4
aS' '
p19
aS'platform'
p20
ag4
ag4
ag2
aa(lp21
g2
ag4
ag19
aS'exit'
p22
ag20
ag4
ag4
ag2
aa(lp23
g2
ag2
ag2
ag2
ag2
ag2
ag2
ag2
aa.