(lp0
(lp1
S'platform'
p2
ag2
ag2
ag2
ag2
ag2
ag2
ag2
aa(lp3
g2
aS' '
p4
ag4
ag4
ag4
ag4
ag4
ag2
aa(lp5
g2
ag4
ag4
ag4
ag4
ag4
aS'playerSpawn'
p6
ag2
aa(lp7
g2
ag4
ag4
ag4
ag4
ag4
ag4
ag2
aa(lp8
g2
ag4
ag4
ag4
ag4
ag4
ag4
ag2
aa(lp9
g2
ag4
ag4
ag4
ag4
ag4
ag4
ag2
aa(lp10
g2
ag4
ag4
ag4
ag4
ag4
aS'crate'
p11
ag2
aa(lp12
g2
ag4
ag4
ag4
ag4
ag4
ag4
ag2
aa(lp13
g2
ag4
ag4
ag4
ag4
ag4
ag4
ag2
aa(lp14
g2
ag4
ag4
ag4
ag4
ag4
ag4
ag2
aa(lp15
g2
ag4
ag4
ag4
ag4
ag4
ag4
ag2
aa(lp16
g2
ag4
ag4
ag4
ag4
ag4
ag4
ag2
aa(lp17
g2
ag4
ag4
aS' '
p18
aS'platform'
p19
ag4
ag4
ag2
aa(lp20
g2
ag4
ag18
aS'exit'
p21
ag19
ag4
ag4
ag2
aa(lp22
g2
ag2
ag2
ag2
ag2
ag2
ag2
ag2
aa.