(lp0
(lp1
S'platform'
p2
ag2
ag2
ag2
ag2
ag2
ag2
ag2
ag2
ag2
ag2
ag2
ag2
ag2
ag2
aa(lp3
g2
ag2
aS' '
p4
ag4
ag4
ag2
ag4
ag4
ag4
ag4
ag4
ag4
ag4
aS' '
p5
ag2
aa(lp6
g2
ag2
ag4
ag4
ag4
ag2
ag4
ag4
ag4
ag4
ag4
ag4
aS'playerSpawn'
p7
aS' '
p8
ag2
aa(lp9
g2
ag2
ag4
ag4
ag4
ag2
ag4
ag4
ag4
ag4
ag4
ag4
ag4
ag4
ag2
aa(lp10
g2
ag2
ag4
ag4
ag4
ag2
ag4
ag4
ag5
ag5
ag4
ag4
ag4
aS'crate'
p11
ag2
aa(lp12
g2
ag2
ag4
ag4
ag4
ag2
ag4
ag4
ag5
ag5
ag4
ag4
ag4
ag4
ag2
aa(lp13
g2
ag2
ag4
ag4
ag4
ag2
ag4
ag4
ag5
ag5
ag4
ag4
ag4
aS' '
p14
aS'platform'
p15
aa(lp16
g2
ag2
ag4
ag4
ag4
ag2
ag4
ag4
ag5
ag5
ag4
ag4
ag14
ag14
ag2
aa(lp17
g2
ag2
ag4
ag4
aS'key'
p18
ag2
ag4
ag4
ag5
ag5
ag4
ag4
ag4
ag14
ag2
aa(lp19
g2
ag2
ag4
ag4
ag4
ag2
ag4
ag4
ag5
ag5
aS' '
p20
ag4
ag4
ag4
aS'platform'
p21
aa(lp22
g2
ag2
ag4
ag4
ag4
ag2
ag4
ag4
ag20
ag5
ag20
ag20
aS' '
p23
ag15
ag2
aa(lp24
g2
ag2
ag4
ag4
ag4
ag2
ag4
ag4
ag20
ag5
ag20
ag20
ag4
ag4
ag2
aa(lp25
g2
ag2
aS'crate'
p26
ag26
aS'lock'
p27
ag4
ag4
ag4
ag20
ag20
ag4
ag20
ag4
ag4
ag2
aa(lp28
g2
ag2
ag2
ag2
ag2
ag2
ag4
aS'exit'
p29
ag2
ag20
ag20
ag20
ag4
ag4
ag2
aa(lp30
g2
ag2
ag2
ag2
ag2
ag2
ag2
ag2
ag2
ag2
ag2
ag2
ag2
ag2
ag2
aa.