(lp0
(lp1
S'platform'
p2
ag2
ag2
ag2
ag2
ag2
ag2
ag2
ag2
ag2
ag2
ag2
ag2
ag2
ag2
aa(lp3
g2
ag2
ag2
aS' '
p4
ag2
ag4
ag4
ag4
ag4
ag4
ag4
ag4
ag4
ag4
ag2
aa(lp5
g2
ag2
ag2
ag4
ag2
ag4
ag4
ag4
ag4
ag4
aS'playerSpawn'
p6
ag4
ag4
ag4
ag2
aa(lp7
g2
ag2
ag2
ag4
ag2
ag4
ag4
ag4
ag4
ag4
ag4
ag4
ag4
aS'crate'
p8
ag2
aa(lp9
g2
ag2
ag2
ag4
ag2
ag4
ag4
ag4
ag4
ag4
ag4
ag4
ag4
ag4
ag2
aa(lp10
g2
ag2
ag2
ag4
ag2
ag4
ag4
ag4
ag4
ag4
ag4
ag4
ag4
ag4
ag2
aa(lp11
g2
ag2
ag2
aS'key'
p12
ag2
ag4
ag4
ag4
ag4
ag4
ag4
ag4
ag4
ag4
ag2
aa(lp13
g8
ag8
ag8
aS'lock'
p14
ag4
ag4
ag4
ag4
ag4
ag4
ag4
ag4
ag4
ag4
ag2
aa(lp15
g2
ag2
ag2
ag2
ag2
ag4
ag4
aS' '
p16
aS' '
p17
aS'exit'
p18
aS'platform'
p19
ag4
ag4
ag4
ag2
aa(lp20
g2
ag2
ag2
ag2
ag2
ag2
ag2
ag2
ag2
ag2
ag2
ag2
ag2
ag2
ag2
aa.