(lp0
(lp1
S'platform'
p2
ag2
ag2
ag2
ag2
ag2
ag2
ag2
ag2
ag2
ag2
ag2
ag2
ag2
ag2
aa(lp3
g2
ag2
aS'platform'
p4
ag4
aS' '
p5
ag2
ag5
ag5
ag5
ag5
ag5
ag5
ag5
aS' '
p6
ag2
aa(lp7
g2
ag2
ag4
ag4
ag5
ag2
ag5
ag5
ag5
ag5
ag5
ag5
aS'playerSpawn'
p8
aS' '
p9
ag2
aa(lp10
g2
ag2
ag4
ag4
ag5
ag2
ag5
ag5
ag5
ag5
ag5
ag5
ag5
ag5
ag2
aa(lp11
g2
ag2
ag4
ag4
ag5
ag2
ag5
ag5
ag6
ag6
ag5
ag5
ag5
aS'crate'
p12
ag2
aa(lp13
g2
ag2
ag4
ag4
ag5
ag2
ag5
ag5
ag6
ag6
ag5
ag5
ag5
ag5
ag2
aa(lp14
g2
ag2
ag4
ag4
ag5
ag2
ag5
ag5
ag6
ag6
ag5
ag5
ag5
aS' '
p15
aS'platform'
p16
aa(lp17
g2
ag2
ag4
ag4
ag5
ag2
ag5
aS' '
p18
ag18
ag18
ag18
ag18
ag18
ag18
ag2
aa(lp19
g2
ag2
ag4
ag4
aS'key'
p20
ag2
ag5
ag5
ag6
ag6
ag5
ag5
ag5
ag15
ag2
aa(lp21
g2
ag2
ag4
ag4
ag5
ag2
ag5
ag5
ag6
ag6
aS' '
p22
ag5
ag5
ag5
aS'platform'
p23
aa(lp24
g2
ag2
ag4
ag4
ag5
ag2
ag5
ag5
ag22
ag6
ag22
ag22
aS' '
p25
ag16
ag2
aa(lp26
g2
ag2
ag4
ag4
ag5
ag2
ag5
ag5
ag22
ag6
ag22
ag22
ag5
ag5
ag2
aa(lp27
g2
aS'crate'
p28
aS'crate'
p29
ag29
aS'lock'
p30
ag5
ag5
ag5
ag22
ag22
ag5
ag22
ag5
ag5
ag2
aa(lp31
g2
ag2
ag2
ag2
ag2
ag2
ag5
aS'exit'
p32
aS'platform'
p33
aS' '
p34
ag22
ag22
ag5
ag5
ag2
aa(lp35
g2
ag2
ag2
ag2
ag2
ag2
ag2
ag2
ag2
ag2
ag2
ag2
ag2
ag2
ag2
aa.