(lp0
(lp1
S'platform'
p2
ag2
ag2
ag2
ag2
ag2
ag2
ag2
ag2
ag2
ag2
ag2
aa(lp3
g2
aS' '
p4
ag4
ag4
ag4
ag4
ag4
ag4
ag4
ag4
ag4
ag2
aa(lp5
g2
ag4
ag4
ag4
ag4
ag4
ag4
ag4
ag4
ag4
ag4
ag2
aa(lp6
g2
ag4
ag4
ag4
ag4
ag4
ag4
aS' '
p7
ag4
aS'crate'
p8
aS'balloon'
p9
ag2
aa(lp10
g2
ag4
ag4
ag4
ag4
ag4
ag4
ag4
ag4
ag4
ag4
ag2
aa(lp11
g2
ag4
ag4
ag4
ag4
ag4
ag4
ag4
ag4
ag4
ag4
ag2
aa(lp12
g2
ag4
ag4
ag4
ag4
ag4
ag4
ag4
ag4
ag4
ag4
ag2
aa(lp13
g2
ag4
ag4
ag4
ag4
ag4
ag4
ag4
aS'playerSpawn'
p14
ag4
ag4
ag2
aa(lp15
g2
ag4
ag4
ag4
ag4
ag4
ag4
ag4
ag4
ag4
ag4
ag2
aa(lp16
g2
ag4
ag4
ag4
ag4
ag4
ag4
ag4
ag4
aS' '
p17
ag4
ag2
aa(lp18
g2
ag4
ag4
ag4
ag4
ag4
ag4
ag4
ag4
ag17
ag4
ag2
aa(lp19
g2
ag4
ag4
ag4
ag4
ag4
ag4
ag4
ag4
ag17
aS'crate'
p20
ag2
aa(lp21
g2
ag4
ag4
ag4
ag4
ag4
ag4
ag4
ag4
ag17
ag4
ag2
aa(lp22
g2
ag4
ag4
ag4
ag4
ag4
ag4
ag4
ag4
ag17
ag4
ag2
aa(lp23
g2
ag4
ag4
ag4
ag4
ag4
ag4
ag4
ag4
ag17
ag4
ag2
aa(lp24
g2
ag4
ag4
ag4
ag4
ag4
ag4
aS' '
p25
ag4
ag4
ag4
ag2
aa(lp26
g2
ag4
ag4
ag4
ag4
ag4
ag4
ag4
ag4
ag4
ag20
ag2
aa(lp27
g2
ag4
ag4
ag4
ag4
ag4
ag4
ag4
ag4
ag4
ag4
ag2
aa(lp28
g2
ag4
ag4
ag4
ag4
ag4
ag4
ag4
aS' '
p29
ag4
ag4
ag2
aa(lp30
g2
ag2
ag2
ag2
ag2
ag2
ag2
ag2
ag2
ag2
ag2
ag2
aa.