(lp0
(lp1
S'platform'
p2
ag2
ag2
ag2
ag2
ag2
ag2
ag2
ag2
ag2
aa(lp3
g2
aS' '
p4
aS'playerSpawn'
p5
ag2
ag4
ag4
ag4
ag4
ag4
ag2
aa(lp6
g2
ag4
ag4
ag2
ag4
ag4
ag4
aS'crate'
p7
ag7
ag2
aa(lp8
g2
ag4
aS'key'
p9
ag2
ag4
ag4
ag4
ag4
ag4
ag2
aa(lp10
g2
ag4
ag4
ag2
ag4
ag4
ag4
ag4
ag4
ag2
aa(lp11
g2
ag4
ag4
ag2
ag4
ag4
ag4
ag4
ag4
ag2
aa(lp12
g2
ag4
aS'lock'
p13
ag2
ag4
ag4
ag4
ag4
ag4
ag2
aa(lp14
g2
ag4
ag4
ag4
ag4
ag4
ag4
ag4
ag4
ag2
aa(lp15
g2
ag4
ag4
ag4
ag4
ag4
ag4
ag4
ag4
ag2
aa(lp16
g2
ag4
ag4
ag4
ag4
ag4
ag4
ag4
ag4
ag2
aa(lp17
g2
ag4
ag4
ag4
ag4
ag4
ag4
ag4
ag4
ag2
aa(lp18
g2
ag4
ag4
ag4
ag4
ag4
ag4
ag7
ag7
ag2
aa(lp19
g2
ag4
ag4
ag4
ag4
ag4
ag4
ag4
ag4
ag2
aa(lp20
g2
ag4
ag4
ag4
ag4
ag4
ag4
ag4
ag4
ag2
aa(lp21
g2
ag4
ag4
ag4
ag4
ag4
ag4
ag4
ag4
ag2
aa(lp22
g2
ag4
ag4
ag4
aS' '
p23
ag4
ag4
ag4
ag4
ag2
aa(lp24
g2
ag4
ag4
ag4
ag23
ag2
ag2
ag2
ag2
ag2
aa(lp25
g2
ag4
ag4
ag23
aS'key'
p26
ag2
ag2
ag2
ag2
ag2
aa(lp27
g2
ag4
ag4
ag4
ag4
ag4
ag13
ag4
aS'exit'
p28
ag2
aa(lp29
g2
ag2
ag2
ag2
ag2
ag2
ag2
ag2
ag2
ag2
aa.