(lp0
(lp1
S'platform'
p2
ag2
ag2
ag2
ag2
ag2
ag2
ag2
ag2
ag2
ag2
ag2
aa(lp3
g2
aS' '
p4
ag4
ag4
ag4
ag2
aS' '
p5
ag5
ag5
ag5
ag5
ag2
aa(lp6
g2
ag4
ag4
aS'playerSpawn'
p7
ag4
ag2
ag5
ag5
ag5
ag5
ag5
ag2
aa(lp8
g2
ag4
ag4
ag4
ag4
ag2
ag5
ag5
ag5
ag5
aS'key'
p9
ag2
aa(lp10
g2
ag4
ag4
ag4
ag4
ag2
ag5
ag5
ag5
ag9
ag9
ag2
aa(lp11
g2
ag4
ag4
ag4
ag5
ag5
ag5
ag5
ag9
ag9
ag9
ag2
aa(lp12
g2
ag4
ag4
ag4
ag5
ag5
ag5
ag5
ag9
ag9
ag9
ag2
aa(lp13
g2
aS'crate'
p14
ag4
ag4
ag5
ag5
ag5
ag5
aS'key'
p15
ag9
ag15
ag2
aa(lp16
g2
ag4
ag4
ag4
ag5
ag5
ag5
ag5
ag9
ag9
ag9
ag2
aa(lp17
g2
ag4
ag4
ag4
ag5
ag5
ag5
ag5
ag9
ag9
ag9
ag2
aa(lp18
g2
ag4
ag4
ag4
ag5
ag5
ag5
ag5
ag5
ag9
ag9
ag2
aa(lp19
g2
ag4
ag4
ag4
ag5
ag5
ag5
ag5
ag5
ag5
ag5
ag2
aa(lp20
g2
ag4
ag4
ag4
ag4
ag2
ag5
ag5
ag5
ag5
ag5
ag2
aa(lp21
g2
ag4
ag4
ag4
aS'exit'
p22
ag2
ag5
ag5
ag5
ag5
ag5
ag2
aa(lp23
g2
ag2
ag2
ag2
ag2
ag2
ag2
ag2
ag2
ag2
ag2
ag2
aa.